(dp0
I256
S'%rd37'
p1
sI384
S'%rd83+8192'
p2
sI260
S'%rd37+8'
p3
sI1040
S'%rd84+4120'
p4
sI264
S'%rd37+16'
p5
sI492
S'%rd2+8'
p6
sI140
S'%rd29'
p7
sI1036
S'%rd84'
p8
sI144
S'%rd29+8'
p9
sI792
S'%rd59+8'
p10
sI1164
S'%rd85+3072'
p11
sI148
S'%rd29+16'
p12
sI1032
S'%rd84+24'
p13
sI152
S'%rd29+24'
p14
sI388
S'%rd83+12312'
p15
sI1160
S'%rd85+2048'
p16
sI704
S'%rd51+24'
p17
sI1028
S'%rd84+16'
p18
sI800
S'%rd59+24'
p19
sI896
S'%rd67+24'
p20
sI1060
S'%rd84+8208'
p21
sI1024
S'%rd84+8'
p22
sI40
S'%rd25+16'
p23
sI796
S'%rd59+16'
p24
sI1152
S'%rd85'
p25
sI940
S'%rd70'
p26
sI1280
S'%rd16+8'
p27
sI1084
S'%rd84+12288'
p28
sI1072
S'%rd84+12312'
p29
sI392
S'%rd83+12304'
p30
sI692
S'%rd51'
p31
sI1276
S'%rd16'
p32
sI1080
S'%rd84+12296'
p33
sI568
S'%rd46+16'
p34
sI884
S'%rd67'
p35
sI700
S'%rd51+16'
p36
sI1076
S'%rd84+12304'
p37
sI192
S'%rd33'
p38
sI1056
S'%rd84+8216'
p39
sI196
S'%rd33+8'
p40
sI748
S'%rd54'
p41
sI1284
S'%rd16+16'
p42
sI200
S'%rd33+16'
p43
sI268
S'%rd37+24'
p44
sI1460
S'%rd81+24'
p45
sI204
S'%rd33+24'
p46
sI844
S'%rd62'
p47
sI1068
S'%rd84+8192'
p48
sI1048
S'%rd84+4104'
p49
sI696
S'%rd51+8'
p50
sI340
S'%rd83+8'
p51
sI1064
S'%rd84+8200'
p52
sI344
S'%rd83+16'
p53
sI348
S'%rd83+24'
p54
sI1156
S'%rd85+1024'
p55
sI1288
S'%rd16+24'
p56
sI352
S'%rd83'
p57
sI400
S'%rd83+12288'
p58
sI356
S'%rd83+4120'
p59
sI360
S'%rd83+4112'
p60
sI892
S'%rd67+16'
p61
sI364
S'%rd83+4104'
p62
sI1052
S'%rd84+4096'
p63
sI368
S'%rd83+4096'
p64
sI552
S'%rd43+44'
p65
sI372
S'%rd83+8216'
p66
sI888
S'%rd67+8'
p67
sI376
S'%rd83+8208'
p68
sI788
S'%rd59'
p69
sI396
S'%rd83+12296'
p70
sI380
S'%rd83+8200'
p71
sI1044
S'%rd84+4112'
p72
s.