(dp0
I1024
(lp1
S'%p9'
p2
aS'%p15'
p3
asI1280
(lp4
g2
aS'!%p1'
p5
asI1028
(lp6
g2
ag3
asI1032
(lp7
g2
ag3
asI940
(lp8
g2
aS'%p12'
p9
asI1036
(lp10
g2
ag3
asI1040
(lp11
g2
ag3
asI1368
(lp12
g2
ag5
asI1044
(lp13
g2
ag3
asI1048
(lp14
g2
ag3
asI1284
(lp15
g2
ag5
asI1052
(lp16
g2
ag3
asI1056
(lp17
g2
ag3
asI1060
(lp18
g2
ag3
asI40
(lp19
sI348
(lp20
S'%p7'
p21
asI1068
(lp22
g2
ag3
asI1072
(lp23
g2
ag3
asI1288
(lp24
g2
ag5
asI1076
(lp25
g2
ag3
asI568
(lp26
g2
asI1460
(lp27
g2
asI1084
(lp28
g2
ag3
asI1088
(lp29
g2
ag3
asI1092
(lp30
g2
ag3
asI1096
(lp31
g2
ag3
asI1100
(lp32
g2
ag3
asI1104
(lp33
g2
ag3
asI1108
(lp34
g2
ag3
asI1112
(lp35
g2
ag3
asI1116
(lp36
g2
ag3
asI1120
(lp37
g2
ag3
asI1124
(lp38
g2
ag3
asI1128
(lp39
g2
ag3
asI956
(lp40
g2
ag9
asI1132
(lp41
g2
ag3
asI1136
(lp42
g2
ag3
asI1180
(lp43
g2
ag3
asI1140
(lp44
g2
ag3
asI1144
(lp45
g2
ag3
asI1148
(lp46
g2
ag3
asI1152
(lp47
g2
ag3
asI192
(lp48
S'%p5'
p49
aS'%p4'
p50
asI1156
(lp51
g2
ag3
asI1160
(lp52
g2
ag3
asI140
(lp53
S'%p6'
p54
ag49
ag50
asI144
(lp55
g54
ag49
ag50
asI148
(lp56
g54
ag49
ag50
asI152
(lp57
g54
ag49
ag50
asI1420
(lp58
g2
ag5
asI156
(lp59
g54
ag49
ag50
asI160
(lp60
g54
ag49
ag50
asI164
(lp61
g54
ag49
ag50
asI168
(lp62
g54
ag49
ag50
asI796
(lp63
g2
ag9
aS'%p13'
p64
asI692
(lp65
g2
ag9
ag64
aS'%p14'
p66
asI696
(lp67
g2
ag9
ag64
ag66
asI372
(lp68
g21
asI700
(lp69
g2
ag9
ag64
ag66
asI704
(lp70
g2
ag9
ag64
ag66
asI800
(lp71
g2
ag9
ag64
asI196
(lp72
g49
ag50
asI200
(lp73
g49
ag50
asI204
(lp74
g49
ag50
asI720
(lp75
g2
ag9
ag64
ag66
asI376
(lp76
g21
asI724
(lp77
g2
ag9
ag64
ag66
asI1064
(lp78
g2
ag3
asI728
(lp79
g2
ag9
ag64
ag66
asI1316
(lp80
g2
ag5
asI220
(lp81
g49
ag50
asI1320
(lp82
g2
ag5
asI224
(lp83
g49
ag50
asI228
(lp84
g49
ag50
asI232
(lp85
g49
ag50
asI380
(lp86
g21
asI748
(lp87
g2
ag9
ag64
ag66
asI1396
(lp88
g2
ag5
asI552
(lp89
S'%p10'
p90
ag2
asI1372
(lp91
g2
ag5
asI764
(lp92
g2
ag9
ag64
ag66
asI256
(lp93
g50
asI896
(lp94
g2
ag9
asI260
(lp95
g50
asI264
(lp96
g50
asI1168
(lp97
g2
ag3
asI268
(lp98
g50
asI1424
(lp99
g2
ag5
asI788
(lp100
g2
ag9
ag64
asI792
(lp101
g2
ag9
ag64
asI1412
(lp102
g2
ag5
asI284
(lp103
g50
asI288
(lp104
g50
asI292
(lp105
g50
asI296
(lp106
g50
asI732
(lp107
g2
ag9
ag64
ag66
asI816
(lp108
g2
ag9
ag64
asI1416
(lp109
g2
ag5
asI820
(lp110
g2
ag9
ag64
asI824
(lp111
g2
ag9
ag64
asI828
(lp112
g2
ag9
ag64
asI1248
(lp113
g2
ag5
asI1164
(lp114
g2
ag3
asI844
(lp115
g2
ag9
ag64
asI1360
(lp116
g2
ag5
asI1080
(lp117
g2
ag3
asI340
(lp118
g21
asI344
(lp119
g21
asI1252
(lp120
g2
ag5
asI860
(lp121
g2
ag9
ag64
asI352
(lp122
g21
asI400
(lp123
g21
asI356
(lp124
g21
asI360
(lp125
g21
asI364
(lp126
g21
asI368
(lp127
g21
asI1256
(lp128
g2
ag5
asI884
(lp129
g2
ag9
asI1308
(lp130
g2
ag5
asI888
(lp131
g2
ag9
asI404
(lp132
g21
asI892
(lp133
g2
ag9
asI384
(lp134
g21
asI1172
(lp135
g2
ag3
asI388
(lp136
g21
asI392
(lp137
g21
asI396
(lp138
g21
asI912
(lp139
g2
ag9
asI920
(lp140
g2
ag9
asI916
(lp141
g2
ag9
asI408
(lp142
g21
asI412
(lp143
g21
asI416
(lp144
g21
asI420
(lp145
g21
asI424
(lp146
g21
asI924
(lp147
g2
ag9
asI428
(lp148
g21
asI432
(lp149
g21
asI436
(lp150
g21
asI440
(lp151
g21
asI444
(lp152
g21
asI448
(lp153
g21
asI452
(lp154
g21
asI456
(lp155
g21
asI1356
(lp156
g2
ag5
asI460
(lp157
g21
asI464
(lp158
g21
asI1276
(lp159
g2
ag5
asI492
(lp160
sI1312
(lp161
g2
ag5
asI1244
(lp162
g2
ag5
asI1364
(lp163
g2
ag5
asI1176
(lp164
g2
ag3
as.