(dp0
S'%fd9'
p1
S'.f64'
p2
sS'%fd8'
p3
g2
sS'%fd1'
p4
g2
sS'%fd0'
p5
g2
sS'%fd3'
p6
g2
sS'%fd2'
p7
g2
sS'%fd5'
p8
g2
sS'%fd4'
p9
g2
sS'%fd7'
p10
g2
sS'%fd6'
p11
g2
sS'%r103'
p12
S'.b32'
p13
sS'%r102'
p14
g13
sS'%r101'
p15
g13
sS'%r100'
p16
g13
sS'%r107'
p17
g13
sS'%r106'
p18
g13
sS'%r105'
p19
g13
sS'%r104'
p20
g13
sS'%r109'
p21
g13
sS'%r108'
p22
g13
sS'%fd119'
p23
g2
sS'%fd118'
p24
g2
sS'%fd111'
p25
g2
sS'%fd110'
p26
g2
sS'%fd113'
p27
g2
sS'%fd112'
p28
g2
sS'%fd115'
p29
g2
sS'%fd114'
p30
g2
sS'%fd117'
p31
g2
sS'%fd116'
p32
g2
sS'%r4'
p33
g13
sS'%r5'
p34
g13
sS'%r6'
p35
g13
sS'%r7'
p36
g13
sS'%r0'
p37
g13
sS'%r1'
p38
g13
sS'%r2'
p39
g13
sS'%r3'
p40
g13
sS'%fd188'
p41
g2
sS'%fd189'
p42
g2
sS'%r8'
p43
g13
sS'%r9'
p44
g13
sS'%rd39'
p45
S'.b64'
p46
sS'%rd38'
p47
g46
sS'%rd33'
p48
g46
sS'%rd32'
p49
g46
sS'%rd31'
p50
g46
sS'%rd30'
p51
g46
sS'%rd37'
p52
g46
sS'%rd36'
p53
g46
sS'%rd35'
p54
g46
sS'%rd34'
p55
g46
sS'%p21'
p56
S'.pred'
p57
sS'%p20'
p58
g57
sS'%p23'
p59
g57
sS'%p22'
p60
g57
sS'%p25'
p61
g57
sS'%p24'
p62
g57
sS'%fd64'
p63
g2
sS'%fd65'
p64
g2
sS'%fd66'
p65
g2
sS'%fd67'
p66
g2
sS'%fd60'
p67
g2
sS'%fd61'
p68
g2
sS'%fd62'
p69
g2
sS'%fd63'
p70
g2
sS'%fd68'
p71
g2
sS'%fd69'
p72
g2
sS'%r98'
p73
g13
sS'%r99'
p74
g13
sS'%r96'
p75
g13
sS'%r97'
p76
g13
sS'%r94'
p77
g13
sS'%r95'
p78
g13
sS'%r92'
p79
g13
sS'%r93'
p80
g13
sS'%r90'
p81
g13
sS'%r91'
p82
g13
sS'%r74'
p83
g13
sS'%r75'
p84
g13
sS'%r76'
p85
g13
sS'%r77'
p86
g13
sS'%r70'
p87
g13
sS'%r71'
p88
g13
sS'%r72'
p89
g13
sS'%r73'
p90
g13
sS'%r78'
p91
g13
sS'%r79'
p92
g13
sS'%r147'
p93
g13
sS'%r146'
p94
g13
sS'%r145'
p95
g13
sS'%r144'
p96
g13
sS'%r143'
p97
g13
sS'%r142'
p98
g13
sS'%r141'
p99
g13
sS'%r140'
p100
g13
sS'%r149'
p101
g13
sS'%r148'
p102
g13
sS'%fd99'
p103
g2
sS'%fd98'
p104
g2
sS'%fd91'
p105
g2
sS'%fd90'
p106
g2
sS'%fd93'
p107
g2
sS'%fd92'
p108
g2
sS'%fd95'
p109
g2
sS'%fd94'
p110
g2
sS'%fd97'
p111
g2
sS'%fd96'
p112
g2
sS'%rd85'
p113
g46
sS'%fd160'
p114
g2
sS'%fd161'
p115
g2
sS'%fd162'
p116
g2
sS'%fd163'
p117
g2
sS'%fd164'
p118
g2
sS'%fd165'
p119
g2
sS'%fd166'
p120
g2
sS'%fd167'
p121
g2
sS'%fd168'
p122
g2
sS'%fd169'
p123
g2
sS'%fd28'
p124
g2
sS'%fd29'
p125
g2
sS'%fd20'
p126
g2
sS'%fd21'
p127
g2
sS'%fd22'
p128
g2
sS'%fd23'
p129
g2
sS'%fd24'
p130
g2
sS'%fd25'
p131
g2
sS'%fd26'
p132
g2
sS'%fd27'
p133
g2
sS'%rd84'
p134
g46
sS'%p10'
p135
g57
sS'%p11'
p136
g57
sS'%p12'
p137
g57
sS'%p13'
p138
g57
sS'%p14'
p139
g57
sS'%p15'
p140
g57
sS'%p16'
p141
g57
sS'%p17'
p142
g57
sS'%p18'
p143
g57
sS'%p19'
p144
g57
sS'%rd75'
p145
g46
sS'%rd74'
p146
g46
sS'%rd73'
p147
g46
sS'%rd72'
p148
g46
sS'%rd71'
p149
g46
sS'%rd70'
p150
g46
sS'%r38'
p151
g13
sS'%r39'
p152
g13
sS'%r30'
p153
g13
sS'%r31'
p154
g13
sS'%r32'
p155
g13
sS'%r33'
p156
g13
sS'%r34'
p157
g13
sS'%r35'
p158
g13
sS'%r36'
p159
g13
sS'%r37'
p160
g13
sS'%fd59'
p161
g2
sS'%fd58'
p162
g2
sS'%fd55'
p163
g2
sS'%fd54'
p164
g2
sS'%fd57'
p165
g2
sS'%fd56'
p166
g2
sS'%fd51'
p167
g2
sS'%fd50'
p168
g2
sS'%fd53'
p169
g2
sS'%fd52'
p170
g2
sS'%fd182'
p171
g2
sS'%fd183'
p172
g2
sS'%fd180'
p173
g2
sS'%fd181'
p174
g2
sS'%fd186'
p175
g2
sS'%fd187'
p176
g2
sS'%fd184'
p177
g2
sS'_Z15kernel_gpu_cuda7par_str7dim_strP7box_strP11FOUR_VECTORPdS4_$__cuda_local_var_14058_34_non_const_qB_shared'
p178
S'.b32'
p179
sS'%fd185'
p180
g2
sS'%r118'
p181
g13
sS'%r119'
p182
g13
sS'%r114'
p183
g13
sS'%r115'
p184
g13
sS'%r116'
p185
g13
sS'%r117'
p186
g13
sS'%r110'
p187
g13
sS'%r111'
p188
g13
sS'%r112'
p189
g13
sS'%r113'
p190
g13
sS'%tid.x'
p191
g179
sS'%tid.y'
p192
g179
sS'%tid.z'
p193
g179
sS'%fd192'
p194
g2
sS'%fd195'
p195
g2
sS'%fd194'
p196
g2
sS'%fd197'
p197
g2
sS'%fd196'
p198
g2
sS'%fd199'
p199
g2
sS'%fd198'
p200
g2
sS'%fd124'
p201
g2
sS'%fd125'
p202
g2
sS'%fd126'
p203
g2
sS'%fd127'
p204
g2
sS'%fd120'
p205
g2
sS'%fd121'
p206
g2
sS'%fd122'
p207
g2
sS'%fd123'
p208
g2
sS'%fd128'
p209
g2
sS'%fd129'
p210
g2
sS'%f4'
p211
S'.f32'
p212
sS'%fd11'
p213
g2
sS'%fd10'
p214
g2
sS'%fd13'
p215
g2
sS'%fd12'
p216
g2
sS'%fd15'
p217
g2
sS'%fd14'
p218
g2
sS'%fd17'
p219
g2
sS'%fd16'
p220
g2
sS'%fd19'
p221
g2
sS'%fd18'
p222
g2
sS'%rd24'
p223
g46
sS'%rd25'
p224
g46
sS'%f0'
p225
g212
sS'%f1'
p226
g212
sS'%f2'
p227
g212
sS'%f3'
p228
g212
sS'%nctaid.y'
p229
g179
sS'%nctaid.x'
p230
g179
sS'%nctaid.z'
p231
g179
sS'%r89'
p232
g13
sS'%r88'
p233
g13
sS'%rd26'
p234
g46
sS'%rd27'
p235
g46
sS'%rd20'
p236
g46
sS'%rd21'
p237
g46
sS'%rd22'
p238
g46
sS'%rd23'
p239
g46
sS'%r81'
p240
g13
sS'%r80'
p241
g13
sS'%r83'
p242
g13
sS'%r82'
p243
g13
sS'%r85'
p244
g13
sS'%r84'
p245
g13
sS'%r87'
p246
g13
sS'%r86'
p247
g13
sS'%r67'
p248
g13
sS'%r66'
p249
g13
sS'%r65'
p250
g13
sS'%r64'
p251
g13
sS'%r63'
p252
g13
sS'%r62'
p253
g13
sS'%r61'
p254
g13
sS'%r60'
p255
g13
sS'%rd9'
p256
g46
sS'%r69'
p257
g13
sS'%r68'
p258
g13
sS'%r150'
p259
g13
sS'%r151'
p260
g13
sS'%r152'
p261
g13
sS'%r153'
p262
g13
sS'%r154'
p263
g13
sS'%r155'
p264
g13
sS'%r156'
p265
g13
sS'%r157'
p266
g13
sS'%r158'
p267
g13
sS'%r159'
p268
g13
sS'%rd7'
p269
g46
sS'%rd6'
p270
g46
sS'%rd1'
p271
g46
sS'%rd0'
p272
g46
sS'%rd3'
p273
g46
sS'%rd2'
p274
g46
sS'%fd88'
p275
g2
sS'%fd89'
p276
g2
sS'%rd8'
p277
g46
sS'%fd82'
p278
g2
sS'%fd83'
p279
g2
sS'%fd80'
p280
g2
sS'%fd81'
p281
g2
sS'%fd86'
p282
g2
sS'%fd87'
p283
g2
sS'%fd84'
p284
g2
sS'%fd85'
p285
g2
sS'_Z15kernel_gpu_cuda7par_str7dim_strP7box_strP11FOUR_VECTORPdS4_$__cuda_local_var_14057_39_non_const_rB_shared'
p286
g179
sS'%r125'
p287
g13
sS'%r124'
p288
g13
sS'%r127'
p289
g13
sS'%r126'
p290
g13
sS'%r121'
p291
g13
sS'%r120'
p292
g13
sS'%r123'
p293
g13
sS'%r122'
p294
g13
sS'%r129'
p295
g13
sS'%r128'
p296
g13
sS'%rd79'
p297
g46
sS'%fd179'
p298
g2
sS'%fd178'
p299
g2
sS'%fd177'
p300
g2
sS'%fd176'
p301
g2
sS'%fd175'
p302
g2
sS'%fd174'
p303
g2
sS'%fd173'
p304
g2
sS'%fd172'
p305
g2
sS'%fd171'
p306
g2
sS'%fd170'
p307
g2
sS'%rd77'
p308
g46
sS'%rd76'
p309
g46
sS'%rd19'
p310
g46
sS'%rd18'
p311
g46
sS'%rd15'
p312
g46
sS'%rd14'
p313
g46
sS'%rd17'
p314
g46
sS'%rd16'
p315
g46
sS'%rd11'
p316
g46
sS'%rd10'
p317
g46
sS'%rd13'
p318
g46
sS'%rd12'
p319
g46
sS'%rd68'
p320
g46
sS'%rd69'
p321
g46
sS'%rd60'
p322
g46
sS'%rd61'
p323
g46
sS'%rd62'
p324
g46
sS'%rd63'
p325
g46
sS'%rd64'
p326
g46
sS'%rd65'
p327
g46
sS'%rd66'
p328
g46
sS'%rd67'
p329
g46
sS'%r29'
p330
g13
sS'%r28'
p331
g13
sS'%rd82'
p332
g46
sS'%rd83'
p333
g46
sS'%rd80'
p334
g46
sS'%rd81'
p335
g46
sS'%r23'
p336
g13
sS'%r22'
p337
g13
sS'%r21'
p338
g13
sS'%r20'
p339
g13
sS'%r27'
p340
g13
sS'%r26'
p341
g13
sS'%r25'
p342
g13
sS'%r24'
p343
g13
sS'%fd48'
p344
g2
sS'%fd49'
p345
g2
sS'%fd46'
p346
g2
sS'%fd47'
p347
g2
sS'%fd44'
p348
g2
sS'%fd45'
p349
g2
sS'%fd42'
p350
g2
sS'%fd43'
p351
g2
sS'%fd40'
p352
g2
sS'%fd41'
p353
g2
sS'%rd5'
p354
g46
sS'%rd4'
p355
g46
sS'%fd212'
p356
g2
sS'%fd213'
p357
g2
sS'%fd210'
p358
g2
sS'%fd211'
p359
g2
sS'%fd214'
p360
g2
sS'%r161'
p361
g13
sS'%r160'
p362
g13
sS'%r163'
p363
g13
sS'%r162'
p364
g13
sS'%r165'
p365
g13
sS'%r164'
p366
g13
sS'%r167'
p367
g13
sS'%r166'
p368
g13
sS'%p8'
p369
g57
sS'%p9'
p370
g57
sS'%p6'
p371
g57
sS'%p7'
p372
g57
sS'%p4'
p373
g57
sS'%p5'
p374
g57
sS'%p2'
p375
g57
sS'%p3'
p376
g57
sS'%p0'
p377
g57
sS'%p1'
p378
g57
sS'%fd146'
p379
g2
sS'%fd147'
p380
g2
sS'%fd144'
p381
g2
sS'%fd145'
p382
g2
sS'%fd142'
p383
g2
sS'%fd143'
p384
g2
sS'%fd140'
p385
g2
sS'%fd141'
p386
g2
sS'%fd148'
p387
g2
sS'%fd149'
p388
g2
sS'%fd133'
p389
g2
sS'%fd132'
p390
g2
sS'%fd131'
p391
g2
sS'%fd130'
p392
g2
sS'%fd137'
p393
g2
sS'%fd136'
p394
g2
sS'%fd135'
p395
g2
sS'%fd134'
p396
g2
sS'%fd139'
p397
g2
sS'%fd138'
p398
g2
sS'%rd28'
p399
g46
sS'%rd51'
p400
g46
sS'%rd50'
p401
g46
sS'%rd53'
p402
g46
sS'%rd52'
p403
g46
sS'%rd55'
p404
g46
sS'%rd54'
p405
g46
sS'%rd57'
p406
g46
sS'%rd56'
p407
g46
sS'%rd59'
p408
g46
sS'%rd58'
p409
g46
sS'%rd29'
p410
g46
sS'%rd78'
p411
g46
sS'%r52'
p412
g13
sS'%r53'
p413
g13
sS'%r50'
p414
g13
sS'%r51'
p415
g13
sS'%r56'
p416
g13
sS'%r57'
p417
g13
sS'%r54'
p418
g13
sS'%r55'
p419
g13
sS'%r58'
p420
g13
sS'%r59'
p421
g13
sS'_Z15kernel_gpu_cuda7par_str7dim_strP7box_strP11FOUR_VECTORPdS4__param_0'
p422
g179
sS'_Z15kernel_gpu_cuda7par_str7dim_strP7box_strP11FOUR_VECTORPdS4__param_1'
p423
g179
sS'_Z15kernel_gpu_cuda7par_str7dim_strP7box_strP11FOUR_VECTORPdS4__param_2'
p424
S'.u64'
p425
sS'_Z15kernel_gpu_cuda7par_str7dim_strP7box_strP11FOUR_VECTORPdS4__param_3'
p426
S'.u64'
p427
sS'_Z15kernel_gpu_cuda7par_str7dim_strP7box_strP11FOUR_VECTORPdS4__param_4'
p428
S'.u64'
p429
sS'_Z15kernel_gpu_cuda7par_str7dim_strP7box_strP11FOUR_VECTORPdS4__param_5'
p430
S'.u64'
p431
sS'%r136'
p432
g13
sS'%r137'
p433
g13
sS'%r134'
p434
g13
sS'%r135'
p435
g13
sS'%r132'
p436
g13
sS'%r133'
p437
g13
sS'%r130'
p438
g13
sS'%r131'
p439
g13
sS'%r138'
p440
g13
sS'%r139'
p441
g13
sS'%fd108'
p442
g2
sS'%fd109'
p443
g2
sS'%fd102'
p444
g2
sS'%fd103'
p445
g2
sS'%fd100'
p446
g2
sS'%fd101'
p447
g2
sS'%fd106'
p448
g2
sS'%fd107'
p449
g2
sS'%fd104'
p450
g2
sS'%fd105'
p451
g2
sS'%fd191'
p452
g2
sS'_Z15kernel_gpu_cuda7par_str7dim_strP7box_strP11FOUR_VECTORPdS4_$__cuda_local_var_14048_39_non_const_rA_shared'
p453
g179
sS'%r16'
p454
g13
sS'%r17'
p455
g13
sS'%r14'
p456
g13
sS'%r15'
p457
g13
sS'%r12'
p458
g13
sS'%r13'
p459
g13
sS'%r10'
p460
g13
sS'%r11'
p461
g13
sS'%r18'
p462
g13
sS'%r19'
p463
g13
sS'%fd79'
p464
g2
sS'%fd78'
p465
g2
sS'%fd73'
p466
g2
sS'%fd72'
p467
g2
sS'%fd71'
p468
g2
sS'%fd70'
p469
g2
sS'%fd77'
p470
g2
sS'%fd76'
p471
g2
sS'%fd75'
p472
g2
sS'%fd74'
p473
g2
sS'%fd201'
p474
g2
sS'%fd200'
p475
g2
sS'%fd203'
p476
g2
sS'%fd202'
p477
g2
sS'%fd205'
p478
g2
sS'%fd204'
p479
g2
sS'%fd207'
p480
g2
sS'%fd206'
p481
g2
sS'%fd209'
p482
g2
sS'%fd208'
p483
g2
sS'%fd155'
p484
g2
sS'%fd154'
p485
g2
sS'%fd157'
p486
g2
sS'%fd156'
p487
g2
sS'%fd151'
p488
g2
sS'%fd150'
p489
g2
sS'%fd153'
p490
g2
sS'%fd152'
p491
g2
sS'%fd159'
p492
g2
sS'%fd158'
p493
g2
sS'%fd39'
p494
g2
sS'%fd38'
p495
g2
sS'%fd37'
p496
g2
sS'%fd36'
p497
g2
sS'%fd35'
p498
g2
sS'%fd34'
p499
g2
sS'%fd33'
p500
g2
sS'%fd32'
p501
g2
sS'%fd31'
p502
g2
sS'%fd30'
p503
g2
sS'%rd42'
p504
g46
sS'%rd43'
p505
g46
sS'%rd40'
p506
g46
sS'%rd41'
p507
g46
sS'%rd46'
p508
g46
sS'%rd47'
p509
g46
sS'%rd44'
p510
g46
sS'%rd45'
p511
g46
sS'%rd48'
p512
g46
sS'%rd49'
p513
g46
sS'%ctaid.x'
p514
g179
sS'%ctaid.y'
p515
g179
sS'%ctaid.z'
p516
g179
sS'%fd190'
p517
g2
sS'%fd193'
p518
g2
sS'%r49'
p519
g13
sS'%r48'
p520
g13
sS'%r45'
p521
g13
sS'%r44'
p522
g13
sS'%r47'
p523
g13
sS'%r46'
p524
g13
sS'%r41'
p525
g13
sS'%r40'
p526
g13
sS'%r43'
p527
g13
sS'%r42'
p528
g13
sS'%ntid.y'
p529
g179
sS'%ntid.x'
p530
g179
sS'%ntid.z'
p531
g179
s.