(lp0
(lp1
S'cvta.to.global.u64'
p2
aS'%rd1'
p3
aS'%rd18'
p4
aa(lp5
S'mov.u32'
p6
aS'%r1'
p7
aS'%tid.x'
p8
aa(lp9
S'mov.u32'
p10
aS'%r2'
p11
aS'%ctaid.x'
p12
aa(lp13
S'cvt.s64.s32'
p14
aS'%rd22'
p15
aS'%r2'
p16
aa(lp17
S'setp.ge.s64'
p18
aS'%p2'
p19
aS'%rd22'
p20
aS'%rd21'
p21
aa(lp22
S'@'
p23
aS'%p2'
p24
aS'bra'
p25
aS'BB0_36'
p26
aa(lp27
S'cvta.to.global.u64'
p28
aS'%rd23'
p29
aS'%rd17'
p30
aa(lp31
S'mul.wide.s32'
p32
aS'%rd24'
p33
aS'%r2'
p34
aS'656'
p35
aa(lp36
S'add.s64'
p37
aS'%rd25'
p38
aS'%rd23'
p39
aS'%rd24'
p40
aa(lp41
S'add.s64'
p42
aS'%rd2'
p43
aS'%rd25'
p44
aS'16'
p45
aa(lp46
S'ld.global.u64'
p47
aS'%rd3'
p48
aS'%rd25+16'
p49
aa(lp50
S'cvt.s64.s32'
p51
aS'%rd4'
p52
aS'%rd3'
p53
aa(lp54
S'setp.gt.s32'
p55
aS'%p3'
p56
aS'%r1'
p57
aS'99'
p58
aa(lp59
g23
aS'%p3'
p60
aS'bra'
p61
aS'BB0_11'
p62
aa(lp63
S'mov.u32'
p64
aS'%r51'
p65
aS'99'
p66
aa(lp67
S'sub.s32'
p68
aS'%r52'
p69
aS'%r51'
p70
aS'%r1'
p71
aa(lp72
S'shr.u32'
p73
aS'%r53'
p74
aS'%r52'
p75
aS'7'
p76
aa(lp77
S'add.s32'
p78
aS'%r3'
p79
aS'%r53'
p80
aS'1'
p81
aa(lp82
S'and.b32'
p83
aS'%r4'
p84
aS'%r3'
p85
aS'3'
p86
aa(lp87
S'setp.eq.s32'
p88
aS'%p4'
p89
aS'%r4'
p90
aS'0'
p91
aa(lp92
S'mov.u32'
p93
aS'%r157'
p94
aS'%r1'
p95
aa(lp96
g23
aS'%p4'
p97
aS'bra'
p98
aS'BB0_8'
p99
aa(lp100
S'setp.eq.s32'
p101
aS'%p5'
p102
aS'%r4'
p103
ag81
aa(lp104
S'mov.u32'
p105
aS'%r154'
p106
aS'%r1'
p107
aa(lp108
g23
aS'%p5'
p109
aS'bra'
p110
aS'BB0_7'
p111
aa(lp112
S'setp.eq.s32'
p113
aS'%p6'
p114
aS'%r4'
p115
aS'2'
p116
aa(lp117
S'mov.u32'
p118
aS'%r153'
p119
aS'%r1'
p120
aa(lp121
g23
aS'%p6'
p122
aS'bra'
p123
aS'BB0_6'
p124
aa(lp125
S'shl.b32'
p126
aS'%r54'
p127
aS'%r1'
p128
aS'5'
p129
aa(lp130
S'mov.u32'
p131
aS'%r55'
p132
aS'_Z15kernel_gpu_cuda7par_str7dim_strP7box_strP11FOUR_VECTORPdS4_$__cuda_local_var_14048_39_non_const_rA_shared'
p133
aa(lp134
S'add.s32'
p135
aS'%r56'
p136
aS'%r55'
p137
aS'%r54'
p138
aa(lp139
S'cvt.s64.s32'
p140
aS'%rd26'
p141
aS'%r1'
p142
aa(lp143
S'add.s64'
p144
aS'%rd27'
p145
aS'%rd26'
p146
aS'%rd4'
p147
aa(lp148
S'shl.b64'
p149
aS'%rd28'
p150
aS'%rd27'
p151
ag129
aa(lp152
S'add.s64'
p153
aS'%rd29'
p154
aS'%rd1'
p155
aS'%rd28'
p156
aa(lp157
S'ld.global.f64'
p158
aS'%fd40'
p159
aS'%rd29'
p160
aa(lp161
S'ld.global.f64'
p162
aS'%fd41'
p163
aS'%rd29+8'
p164
aa(lp165
S'ld.global.f64'
p166
aS'%fd42'
p167
aS'%rd29+16'
p168
aa(lp169
S'ld.global.f64'
p170
aS'%fd43'
p171
aS'%rd29+24'
p172
aa(lp173
S'st.shared.f64'
p174
aS'%r56+24'
p175
aS'%fd43'
p176
aa(lp177
S'st.shared.f64'
p178
aS'%r56+16'
p179
aS'%fd42'
p180
aa(lp181
S'st.shared.f64'
p182
aS'%r56+8'
p183
aS'%fd41'
p184
aa(lp185
S'st.shared.f64'
p186
aS'%r56'
p187
aS'%fd40'
p188
aa(lp189
S'add.s32'
p190
aS'%r153'
p191
aS'%r1'
p192
aS'128'
p193
aa(lp194
S'BB0_6:'
p195
aa(lp196
S'cvt.s64.s32'
p197
aS'%rd30'
p198
aS'%r153'
p199
aa(lp200
S'add.s64'
p201
aS'%rd31'
p202
aS'%rd30'
p203
aS'%rd4'
p204
aa(lp205
S'shl.b64'
p206
aS'%rd32'
p207
aS'%rd31'
p208
ag129
aa(lp209
S'add.s64'
p210
aS'%rd33'
p211
aS'%rd1'
p212
aS'%rd32'
p213
aa(lp214
S'ld.global.f64'
p215
aS'%fd44'
p216
aS'%rd33'
p217
aa(lp218
S'ld.global.f64'
p219
aS'%fd45'
p220
aS'%rd33+8'
p221
aa(lp222
S'ld.global.f64'
p223
aS'%fd46'
p224
aS'%rd33+16'
p225
aa(lp226
S'ld.global.f64'
p227
aS'%fd47'
p228
aS'%rd33+24'
p229
aa(lp230
S'shl.b32'
p231
aS'%r57'
p232
aS'%r153'
p233
ag129
aa(lp234
S'mov.u32'
p235
aS'%r58'
p236
aS'_Z15kernel_gpu_cuda7par_str7dim_strP7box_strP11FOUR_VECTORPdS4_$__cuda_local_var_14048_39_non_const_rA_shared'
p237
aa(lp238
S'add.s32'
p239
aS'%r59'
p240
aS'%r58'
p241
aS'%r57'
p242
aa(lp243
S'st.shared.f64'
p244
aS'%r59+24'
p245
aS'%fd47'
p246
aa(lp247
S'st.shared.f64'
p248
aS'%r59+16'
p249
aS'%fd46'
p250
aa(lp251
S'st.shared.f64'
p252
aS'%r59+8'
p253
aS'%fd45'
p254
aa(lp255
S'st.shared.f64'
p256
aS'%r59'
p257
aS'%fd44'
p258
aa(lp259
S'add.s32'
p260
aS'%r154'
p261
aS'%r153'
p262
aS'128'
p263
aa(lp264
S'BB0_7:'
p265
aa(lp266
S'cvt.s64.s32'
p267
aS'%rd34'
p268
aS'%r154'
p269
aa(lp270
S'add.s64'
p271
aS'%rd35'
p272
aS'%rd34'
p273
aS'%rd4'
p274
aa(lp275
S'shl.b64'
p276
aS'%rd36'
p277
aS'%rd35'
p278
ag129
aa(lp279
S'add.s64'
p280
aS'%rd37'
p281
aS'%rd1'
p282
aS'%rd36'
p283
aa(lp284
S'ld.global.f64'
p285
aS'%fd48'
p286
aS'%rd37'
p287
aa(lp288
S'ld.global.f64'
p289
aS'%fd49'
p290
aS'%rd37+8'
p291
aa(lp292
S'ld.global.f64'
p293
aS'%fd50'
p294
aS'%rd37+16'
p295
aa(lp296
S'ld.global.f64'
p297
aS'%fd51'
p298
aS'%rd37+24'
p299
aa(lp300
S'shl.b32'
p301
aS'%r60'
p302
aS'%r154'
p303
ag129
aa(lp304
S'mov.u32'
p305
aS'%r61'
p306
aS'_Z15kernel_gpu_cuda7par_str7dim_strP7box_strP11FOUR_VECTORPdS4_$__cuda_local_var_14048_39_non_const_rA_shared'
p307
aa(lp308
S'add.s32'
p309
aS'%r62'
p310
aS'%r61'
p311
aS'%r60'
p312
aa(lp313
S'st.shared.f64'
p314
aS'%r62+24'
p315
aS'%fd51'
p316
aa(lp317
S'st.shared.f64'
p318
aS'%r62+16'
p319
aS'%fd50'
p320
aa(lp321
S'st.shared.f64'
p322
aS'%r62+8'
p323
aS'%fd49'
p324
aa(lp325
S'st.shared.f64'
p326
aS'%r62'
p327
aS'%fd48'
p328
aa(lp329
S'add.s32'
p330
aS'%r157'
p331
aS'%r154'
p332
aS'128'
p333
aa(lp334
S'BB0_8:'
p335
aa(lp336
S'setp.lt.u32'
p337
aS'%p7'
p338
aS'%r3'
p339
aS'4'
p340
aa(lp341
g23
aS'%p7'
p342
aS'bra'
p343
aS'BB0_11'
p344
aa(lp345
S'cvt.u32.u64'
p346
aS'%r63'
p347
aS'%rd3'
p348
aa(lp349
S'add.s32'
p350
aS'%r64'
p351
aS'%r157'
p352
aS'%r63'
p353
aa(lp354
S'mul.wide.s32'
p355
aS'%rd38'
p356
aS'%r64'
p357
aS'32'
p358
aa(lp359
S'add.s64'
p360
aS'%rd83'
p361
aS'%rd1'
p362
aS'%rd38'
p363
aa(lp364
S'shl.b32'
p365
aS'%r65'
p366
aS'%r157'
p367
ag129
aa(lp368
S'mov.u32'
p369
aS'%r66'
p370
aS'_Z15kernel_gpu_cuda7par_str7dim_strP7box_strP11FOUR_VECTORPdS4_$__cuda_local_var_14048_39_non_const_rA_shared'
p371
aa(lp372
S'add.s32'
p373
aS'%r156'
p374
aS'%r66'
p375
aS'%r65'
p376
aa(lp377
S'BB0_10:'
p378
aa(lp379
S'ld.global.f64'
p380
aS'%fd52'
p381
aS'%rd83+8'
p382
aa(lp383
S'ld.global.f64'
p384
aS'%fd53'
p385
aS'%rd83+16'
p386
aa(lp387
S'ld.global.f64'
p388
aS'%fd54'
p389
aS'%rd83+24'
p390
aa(lp391
S'ld.global.f64'
p392
aS'%fd55'
p393
aS'%rd83'
p394
aa(lp395
S'ld.global.f64'
p396
aS'%fd56'
p397
aS'%rd83+4120'
p398
aa(lp399
S'ld.global.f64'
p400
aS'%fd57'
p401
aS'%rd83+4112'
p402
aa(lp403
S'ld.global.f64'
p404
aS'%fd58'
p405
aS'%rd83+4104'
p406
aa(lp407
S'ld.global.f64'
p408
aS'%fd59'
p409
aS'%rd83+4096'
p410
aa(lp411
S'ld.global.f64'
p412
aS'%fd60'
p413
aS'%rd83+8216'
p414
aa(lp415
S'ld.global.f64'
p416
aS'%fd61'
p417
aS'%rd83+8208'
p418
aa(lp419
S'ld.global.f64'
p420
aS'%fd62'
p421
aS'%rd83+8200'
p422
aa(lp423
S'ld.global.f64'
p424
aS'%fd63'
p425
aS'%rd83+8192'
p426
aa(lp427
S'ld.global.f64'
p428
aS'%fd64'
p429
aS'%rd83+12312'
p430
aa(lp431
S'ld.global.f64'
p432
aS'%fd65'
p433
aS'%rd83+12304'
p434
aa(lp435
S'ld.global.f64'
p436
aS'%fd66'
p437
aS'%rd83+12296'
p438
aa(lp439
S'ld.global.f64'
p440
aS'%fd67'
p441
aS'%rd83+12288'
p442
aa(lp443
S'st.shared.f64'
p444
aS'%r156'
p445
aS'%fd55'
p446
aa(lp447
S'st.shared.f64'
p448
aS'%r156+24'
p449
aS'%fd54'
p450
aa(lp451
S'st.shared.f64'
p452
aS'%r156+16'
p453
aS'%fd53'
p454
aa(lp455
S'st.shared.f64'
p456
aS'%r156+8'
p457
aS'%fd52'
p458
aa(lp459
S'st.shared.f64'
p460
aS'%r156+4096'
p461
aS'%fd59'
p462
aa(lp463
S'st.shared.f64'
p464
aS'%r156+4104'
p465
aS'%fd58'
p466
aa(lp467
S'st.shared.f64'
p468
aS'%r156+4112'
p469
aS'%fd57'
p470
aa(lp471
S'st.shared.f64'
p472
aS'%r156+4120'
p473
aS'%fd56'
p474
aa(lp475
S'st.shared.f64'
p476
aS'%r156+8192'
p477
aS'%fd63'
p478
aa(lp479
S'st.shared.f64'
p480
aS'%r156+8200'
p481
aS'%fd62'
p482
aa(lp483
S'st.shared.f64'
p484
aS'%r156+8208'
p485
aS'%fd61'
p486
aa(lp487
S'st.shared.f64'
p488
aS'%r156+8216'
p489
aS'%fd60'
p490
aa(lp491
S'st.shared.f64'
p492
aS'%r156+12288'
p493
aS'%fd67'
p494
aa(lp495
S'st.shared.f64'
p496
aS'%r156+12296'
p497
aS'%fd66'
p498
aa(lp499
S'st.shared.f64'
p500
aS'%r156+12304'
p501
aS'%fd65'
p502
aa(lp503
S'st.shared.f64'
p504
aS'%r156+12312'
p505
aS'%fd64'
p506
aa(lp507
S'add.s64'
p508
aS'%rd83'
p509
aS'%rd83'
p510
aS'16384'
p511
aa(lp512
S'add.s32'
p513
aS'%r156'
p514
aS'%r156'
p515
aS'16384'
p516
aa(lp517
S'add.s32'
p518
aS'%r157'
p519
aS'%r157'
p520
aS'512'
p521
aa(lp522
S'setp.lt.s32'
p523
aS'%p8'
p524
aS'%r157'
p525
aS'100'
p526
aa(lp527
g23
aS'%p8'
p528
aS'bra'
p529
aS'BB0_10'
p530
aa(lp531
S'BB0_11:'
p532
aa(lp533
S'bar.sync'
p534
ag91
aa(lp535
S'ld.global.u32'
p536
aS'%r67'
p537
aS'%rd2+8'
p538
aa(lp539
S'setp.lt.s32'
p540
aS'%p9'
p541
aS'%r67'
p542
ag91
aa(lp543
g23
aS'%p9'
p544
aS'bra'
p545
aS'BB0_36'
p546
aa(lp547
S'add.s32'
p548
aS'%r16'
p549
aS'%r1'
p550
aS'128'
p551
aa(lp552
S'mov.u32'
p553
aS'%r158'
p554
ag91
aa(lp555
S'cvta.to.global.u64'
p556
aS'%rd77'
p557
aS'%rd20'
p558
aa(lp559
S'BB0_13:'
p560
aa(lp561
S'mov.u32'
p562
aS'%r159'
p563
aS'%ctaid.x'
p564
aa(lp565
S'setp.eq.s32'
p566
aS'%p10'
p567
aS'%r158'
p568
ag91
aa(lp569
g23
aS'%p10'
p570
aS'bra'
p571
aS'BB0_15'
p572
aa(lp573
S'add.s32'
p574
aS'%r69'
p575
aS'%r158'
p576
aS'-1'
p577
aa(lp578
S'mov.u32'
p579
aS'%r70'
p580
aS'%ctaid.x'
p581
aa(lp582
S'mul.wide.s32'
p583
aS'%rd40'
p584
aS'%r70'
p585
aS'656'
p586
aa(lp587
S'add.s64'
p588
aS'%rd41'
p589
aS'%rd23'
p590
aS'%rd40'
p591
aa(lp592
S'mul.wide.s32'
p593
aS'%rd42'
p594
aS'%r69'
p595
aS'24'
p596
aa(lp597
S'add.s64'
p598
aS'%rd43'
p599
aS'%rd41'
p600
aS'%rd42'
p601
aa(lp602
S'ld.global.u32'
p603
aS'%r159'
p604
aS'%rd43+44'
p605
aa(lp606
S'BB0_15:'
p607
aa(lp608
S'mov.u32'
p609
aS'%r166'
p610
aS'%tid.x'
p611
aa(lp612
S'mul.wide.s32'
p613
aS'%rd45'
p614
aS'%r159'
p615
aS'656'
p616
aa(lp617
S'add.s64'
p618
aS'%rd46'
p619
aS'%rd23'
p620
aS'%rd45'
p621
aa(lp622
S'ld.global.u64'
p623
aS'%rd8'
p624
aS'%rd46+16'
p625
aa(lp626
S'cvt.s64.s32'
p627
aS'%rd9'
p628
aS'%rd8'
p629
aa(lp630
S'setp.gt.s32'
p631
aS'%p11'
p632
aS'%r166'
p633
aS'99'
p634
aa(lp635
g23
aS'%p11'
p636
aS'bra'
p637
aS'BB0_25'
p638
aa(lp639
S'mov.u32'
p640
aS'%r165'
p641
aS'%tid.x'
p642
aa(lp643
S'mov.u32'
p644
aS'%r72'
p645
aS'99'
p646
aa(lp647
S'sub.s32'
p648
aS'%r73'
p649
aS'%r72'
p650
aS'%r165'
p651
aa(lp652
S'shr.u32'
p653
aS'%r74'
p654
aS'%r73'
p655
ag76
aa(lp656
S'add.s32'
p657
aS'%r75'
p658
aS'%r74'
p659
ag81
aa(lp660
S'and.b32'
p661
aS'%r76'
p662
aS'%r75'
p663
ag86
aa(lp664
S'setp.eq.s32'
p665
aS'%p12'
p666
aS'%r76'
p667
ag91
aa(lp668
g23
aS'%p12'
p669
aS'bra'
p670
aS'BB0_22'
p671
aa(lp672
S'mov.u32'
p673
aS'%r161'
p674
aS'%tid.x'
p675
aa(lp676
S'sub.s32'
p677
aS'%r78'
p678
aS'%r72'
p679
aS'%r161'
p680
aa(lp681
S'shr.u32'
p682
aS'%r79'
p683
aS'%r78'
p684
ag76
aa(lp685
S'add.s32'
p686
aS'%r80'
p687
aS'%r79'
p688
ag81
aa(lp689
S'and.b32'
p690
aS'%r81'
p691
aS'%r80'
p692
ag86
aa(lp693
S'setp.eq.s32'
p694
aS'%p13'
p695
aS'%r81'
p696
ag81
aa(lp697
g23
aS'%p13'
p698
aS'bra'
p699
aS'BB0_21'
p700
aa(lp701
S'mov.u32'
p702
aS'%r160'
p703
aS'%tid.x'
p704
aa(lp705
S'sub.s32'
p706
aS'%r83'
p707
aS'%r72'
p708
aS'%r160'
p709
aa(lp710
S'shr.u32'
p711
aS'%r84'
p712
aS'%r83'
p713
ag76
aa(lp714
S'add.s32'
p715
aS'%r85'
p716
aS'%r84'
p717
ag81
aa(lp718
S'and.b32'
p719
aS'%r86'
p720
aS'%r85'
p721
ag86
aa(lp722
S'setp.eq.s32'
p723
aS'%p14'
p724
aS'%r86'
p725
ag116
aa(lp726
g23
aS'%p14'
p727
aS'bra'
p728
aS'BB0_20'
p729
aa(lp730
S'mov.u32'
p731
aS'%r87'
p732
aS'%tid.x'
p733
aa(lp734
S'cvt.s64.s32'
p735
aS'%rd47'
p736
aS'%r87'
p737
aa(lp738
S'add.s64'
p739
aS'%rd48'
p740
aS'%rd47'
p741
aS'%rd9'
p742
aa(lp743
S'shl.b64'
p744
aS'%rd50'
p745
aS'%rd48'
p746
ag129
aa(lp747
S'add.s64'
p748
aS'%rd51'
p749
aS'%rd1'
p750
aS'%rd50'
p751
aa(lp752
S'ld.global.f64'
p753
aS'%fd68'
p754
aS'%rd51'
p755
aa(lp756
S'ld.global.f64'
p757
aS'%fd69'
p758
aS'%rd51+8'
p759
aa(lp760
S'ld.global.f64'
p761
aS'%fd70'
p762
aS'%rd51+16'
p763
aa(lp764
S'ld.global.f64'
p765
aS'%fd71'
p766
aS'%rd51+24'
p767
aa(lp768
S'shl.b32'
p769
aS'%r88'
p770
aS'%r87'
p771
ag129
aa(lp772
S'mov.u32'
p773
aS'%r89'
p774
aS'_Z15kernel_gpu_cuda7par_str7dim_strP7box_strP11FOUR_VECTORPdS4_$__cuda_local_var_14057_39_non_const_rB_shared'
p775
aa(lp776
S'add.s32'
p777
aS'%r90'
p778
aS'%r89'
p779
aS'%r88'
p780
aa(lp781
S'st.shared.f64'
p782
aS'%r90+24'
p783
aS'%fd71'
p784
aa(lp785
S'st.shared.f64'
p786
aS'%r90+16'
p787
aS'%fd70'
p788
aa(lp789
S'st.shared.f64'
p790
aS'%r90+8'
p791
aS'%fd69'
p792
aa(lp793
S'st.shared.f64'
p794
aS'%r90'
p795
aS'%fd68'
p796
aa(lp797
S'cvta.to.global.u64'
p798
aS'%rd52'
p799
aS'%rd19'
p800
aa(lp801
S'shl.b64'
p802
aS'%rd53'
p803
aS'%rd48'
p804
ag86
aa(lp805
S'add.s64'
p806
aS'%rd54'
p807
aS'%rd52'
p808
aS'%rd53'
p809
aa(lp810
S'ld.global.f64'
p811
aS'%fd72'
p812
aS'%rd54'
p813
aa(lp814
S'shl.b32'
p815
aS'%r91'
p816
aS'%r87'
p817
ag86
aa(lp818
S'mov.u32'
p819
aS'%r92'
p820
aS'_Z15kernel_gpu_cuda7par_str7dim_strP7box_strP11FOUR_VECTORPdS4_$__cuda_local_var_14058_34_non_const_qB_shared'
p821
aa(lp822
S'add.s32'
p823
aS'%r93'
p824
aS'%r92'
p825
aS'%r91'
p826
aa(lp827
S'st.shared.f64'
p828
aS'%r93'
p829
aS'%fd72'
p830
aa(lp831
S'mov.u32'
p832
aS'%r160'
p833
aS'%r16'
p834
aa(lp835
S'BB0_20:'
p836
aa(lp837
S'cvt.s64.s32'
p838
aS'%rd55'
p839
aS'%r160'
p840
aa(lp841
S'add.s64'
p842
aS'%rd56'
p843
aS'%rd55'
p844
aS'%rd9'
p845
aa(lp846
S'shl.b64'
p847
aS'%rd58'
p848
aS'%rd56'
p849
ag129
aa(lp850
S'add.s64'
p851
aS'%rd59'
p852
aS'%rd1'
p853
aS'%rd58'
p854
aa(lp855
S'ld.global.f64'
p856
aS'%fd73'
p857
aS'%rd59'
p858
aa(lp859
S'ld.global.f64'
p860
aS'%fd74'
p861
aS'%rd59+8'
p862
aa(lp863
S'ld.global.f64'
p864
aS'%fd75'
p865
aS'%rd59+16'
p866
aa(lp867
S'ld.global.f64'
p868
aS'%fd76'
p869
aS'%rd59+24'
p870
aa(lp871
S'shl.b32'
p872
aS'%r94'
p873
aS'%r160'
p874
ag129
aa(lp875
S'mov.u32'
p876
aS'%r95'
p877
aS'_Z15kernel_gpu_cuda7par_str7dim_strP7box_strP11FOUR_VECTORPdS4_$__cuda_local_var_14057_39_non_const_rB_shared'
p878
aa(lp879
S'add.s32'
p880
aS'%r96'
p881
aS'%r95'
p882
aS'%r94'
p883
aa(lp884
S'st.shared.f64'
p885
aS'%r96+24'
p886
aS'%fd76'
p887
aa(lp888
S'st.shared.f64'
p889
aS'%r96+16'
p890
aS'%fd75'
p891
aa(lp892
S'st.shared.f64'
p893
aS'%r96+8'
p894
aS'%fd74'
p895
aa(lp896
S'st.shared.f64'
p897
aS'%r96'
p898
aS'%fd73'
p899
aa(lp900
S'cvta.to.global.u64'
p901
aS'%rd60'
p902
aS'%rd19'
p903
aa(lp904
S'shl.b64'
p905
aS'%rd61'
p906
aS'%rd56'
p907
ag86
aa(lp908
S'add.s64'
p909
aS'%rd62'
p910
aS'%rd60'
p911
aS'%rd61'
p912
aa(lp913
S'ld.global.f64'
p914
aS'%fd77'
p915
aS'%rd62'
p916
aa(lp917
S'shl.b32'
p918
aS'%r97'
p919
aS'%r160'
p920
ag86
aa(lp921
S'mov.u32'
p922
aS'%r98'
p923
aS'_Z15kernel_gpu_cuda7par_str7dim_strP7box_strP11FOUR_VECTORPdS4_$__cuda_local_var_14058_34_non_const_qB_shared'
p924
aa(lp925
S'add.s32'
p926
aS'%r99'
p927
aS'%r98'
p928
aS'%r97'
p929
aa(lp930
S'st.shared.f64'
p931
aS'%r99'
p932
aS'%fd77'
p933
aa(lp934
S'add.s32'
p935
aS'%r161'
p936
aS'%r160'
p937
aS'128'
p938
aa(lp939
S'BB0_21:'
p940
aa(lp941
S'cvt.s64.s32'
p942
aS'%rd63'
p943
aS'%r161'
p944
aa(lp945
S'add.s64'
p946
aS'%rd64'
p947
aS'%rd63'
p948
aS'%rd9'
p949
aa(lp950
S'shl.b64'
p951
aS'%rd66'
p952
aS'%rd64'
p953
ag129
aa(lp954
S'add.s64'
p955
aS'%rd67'
p956
aS'%rd1'
p957
aS'%rd66'
p958
aa(lp959
S'ld.global.f64'
p960
aS'%fd78'
p961
aS'%rd67'
p962
aa(lp963
S'ld.global.f64'
p964
aS'%fd79'
p965
aS'%rd67+8'
p966
aa(lp967
S'ld.global.f64'
p968
aS'%fd80'
p969
aS'%rd67+16'
p970
aa(lp971
S'ld.global.f64'
p972
aS'%fd81'
p973
aS'%rd67+24'
p974
aa(lp975
S'shl.b32'
p976
aS'%r100'
p977
aS'%r161'
p978
ag129
aa(lp979
S'mov.u32'
p980
aS'%r101'
p981
aS'_Z15kernel_gpu_cuda7par_str7dim_strP7box_strP11FOUR_VECTORPdS4_$__cuda_local_var_14057_39_non_const_rB_shared'
p982
aa(lp983
S'add.s32'
p984
aS'%r102'
p985
aS'%r101'
p986
aS'%r100'
p987
aa(lp988
S'st.shared.f64'
p989
aS'%r102+24'
p990
aS'%fd81'
p991
aa(lp992
S'st.shared.f64'
p993
aS'%r102+16'
p994
aS'%fd80'
p995
aa(lp996
S'st.shared.f64'
p997
aS'%r102+8'
p998
aS'%fd79'
p999
aa(lp1000
S'st.shared.f64'
p1001
aS'%r102'
p1002
aS'%fd78'
p1003
aa(lp1004
S'cvta.to.global.u64'
p1005
aS'%rd68'
p1006
aS'%rd19'
p1007
aa(lp1008
S'shl.b64'
p1009
aS'%rd69'
p1010
aS'%rd64'
p1011
ag86
aa(lp1012
S'add.s64'
p1013
aS'%rd70'
p1014
aS'%rd68'
p1015
aS'%rd69'
p1016
aa(lp1017
S'ld.global.f64'
p1018
aS'%fd82'
p1019
aS'%rd70'
p1020
aa(lp1021
S'shl.b32'
p1022
aS'%r103'
p1023
aS'%r161'
p1024
ag86
aa(lp1025
S'mov.u32'
p1026
aS'%r104'
p1027
aS'_Z15kernel_gpu_cuda7par_str7dim_strP7box_strP11FOUR_VECTORPdS4_$__cuda_local_var_14058_34_non_const_qB_shared'
p1028
aa(lp1029
S'add.s32'
p1030
aS'%r105'
p1031
aS'%r104'
p1032
aS'%r103'
p1033
aa(lp1034
S'st.shared.f64'
p1035
aS'%r105'
p1036
aS'%fd82'
p1037
aa(lp1038
S'add.s32'
p1039
aS'%r165'
p1040
aS'%r161'
p1041
aS'128'
p1042
aa(lp1043
S'BB0_22:'
p1044
aa(lp1045
S'setp.lt.u32'
p1046
aS'%p15'
p1047
aS'%r75'
p1048
ag340
aa(lp1049
g23
aS'%p15'
p1050
aS'bra'
p1051
aS'BB0_25'
p1052
aa(lp1053
S'shl.b32'
p1054
aS'%r111'
p1055
aS'%r165'
p1056
ag86
aa(lp1057
S'mov.u32'
p1058
aS'%r112'
p1059
aS'_Z15kernel_gpu_cuda7par_str7dim_strP7box_strP11FOUR_VECTORPdS4_$__cuda_local_var_14058_34_non_const_qB_shared'
p1060
aa(lp1061
S'add.s32'
p1062
aS'%r164'
p1063
aS'%r112'
p1064
aS'%r111'
p1065
aa(lp1066
S'cvt.u32.u64'
p1067
aS'%r113'
p1068
aS'%rd8'
p1069
aa(lp1070
S'add.s32'
p1071
aS'%r114'
p1072
aS'%r165'
p1073
aS'%r113'
p1074
aa(lp1075
S'cvta.to.global.u64'
p1076
aS'%rd71'
p1077
aS'%rd19'
p1078
aa(lp1079
S'mul.wide.s32'
p1080
aS'%rd72'
p1081
aS'%r114'
p1082
aS'8'
p1083
aa(lp1084
S'add.s64'
p1085
aS'%rd85'
p1086
aS'%rd71'
p1087
aS'%rd72'
p1088
aa(lp1089
S'mul.wide.s32'
p1090
aS'%rd74'
p1091
aS'%r114'
p1092
aS'32'
p1093
aa(lp1094
S'add.s64'
p1095
aS'%rd84'
p1096
aS'%rd1'
p1097
aS'%rd74'
p1098
aa(lp1099
S'shl.b32'
p1100
aS'%r115'
p1101
aS'%r165'
p1102
ag129
aa(lp1103
S'mov.u32'
p1104
aS'%r116'
p1105
aS'_Z15kernel_gpu_cuda7par_str7dim_strP7box_strP11FOUR_VECTORPdS4_$__cuda_local_var_14057_39_non_const_rB_shared'
p1106
aa(lp1107
S'add.s32'
p1108
aS'%r163'
p1109
aS'%r116'
p1110
aS'%r115'
p1111
aa(lp1112
S'BB0_24:'
p1113
aa(lp1114
S'ld.global.f64'
p1115
aS'%fd83'
p1116
aS'%rd84+8'
p1117
aa(lp1118
S'ld.global.f64'
p1119
aS'%fd84'
p1120
aS'%rd84+16'
p1121
aa(lp1122
S'ld.global.f64'
p1123
aS'%fd85'
p1124
aS'%rd84+24'
p1125
aa(lp1126
S'ld.global.f64'
p1127
aS'%fd86'
p1128
aS'%rd84'
p1129
aa(lp1130
S'ld.global.f64'
p1131
aS'%fd87'
p1132
aS'%rd84+4120'
p1133
aa(lp1134
S'ld.global.f64'
p1135
aS'%fd88'
p1136
aS'%rd84+4112'
p1137
aa(lp1138
S'ld.global.f64'
p1139
aS'%fd89'
p1140
aS'%rd84+4104'
p1141
aa(lp1142
S'ld.global.f64'
p1143
aS'%fd90'
p1144
aS'%rd84+4096'
p1145
aa(lp1146
S'ld.global.f64'
p1147
aS'%fd91'
p1148
aS'%rd84+8216'
p1149
aa(lp1150
S'ld.global.f64'
p1151
aS'%fd92'
p1152
aS'%rd84+8208'
p1153
aa(lp1154
S'ld.global.f64'
p1155
aS'%fd93'
p1156
aS'%rd84+8200'
p1157
aa(lp1158
S'ld.global.f64'
p1159
aS'%fd94'
p1160
aS'%rd84+8192'
p1161
aa(lp1162
S'ld.global.f64'
p1163
aS'%fd95'
p1164
aS'%rd84+12312'
p1165
aa(lp1166
S'ld.global.f64'
p1167
aS'%fd96'
p1168
aS'%rd84+12304'
p1169
aa(lp1170
S'ld.global.f64'
p1171
aS'%fd97'
p1172
aS'%rd84+12296'
p1173
aa(lp1174
S'ld.global.f64'
p1175
aS'%fd98'
p1176
aS'%rd84+12288'
p1177
aa(lp1178
S'st.shared.f64'
p1179
aS'%r163'
p1180
aS'%fd86'
p1181
aa(lp1182
S'st.shared.f64'
p1183
aS'%r163+24'
p1184
aS'%fd85'
p1185
aa(lp1186
S'st.shared.f64'
p1187
aS'%r163+16'
p1188
aS'%fd84'
p1189
aa(lp1190
S'st.shared.f64'
p1191
aS'%r163+8'
p1192
aS'%fd83'
p1193
aa(lp1194
S'st.shared.f64'
p1195
aS'%r163+4096'
p1196
aS'%fd90'
p1197
aa(lp1198
S'st.shared.f64'
p1199
aS'%r163+4104'
p1200
aS'%fd89'
p1201
aa(lp1202
S'st.shared.f64'
p1203
aS'%r163+4112'
p1204
aS'%fd88'
p1205
aa(lp1206
S'st.shared.f64'
p1207
aS'%r163+4120'
p1208
aS'%fd87'
p1209
aa(lp1210
S'st.shared.f64'
p1211
aS'%r163+8192'
p1212
aS'%fd94'
p1213
aa(lp1214
S'st.shared.f64'
p1215
aS'%r163+8200'
p1216
aS'%fd93'
p1217
aa(lp1218
S'st.shared.f64'
p1219
aS'%r163+8208'
p1220
aS'%fd92'
p1221
aa(lp1222
S'st.shared.f64'
p1223
aS'%r163+8216'
p1224
aS'%fd91'
p1225
aa(lp1226
S'st.shared.f64'
p1227
aS'%r163+12288'
p1228
aS'%fd98'
p1229
aa(lp1230
S'st.shared.f64'
p1231
aS'%r163+12296'
p1232
aS'%fd97'
p1233
aa(lp1234
S'st.shared.f64'
p1235
aS'%r163+12304'
p1236
aS'%fd96'
p1237
aa(lp1238
S'st.shared.f64'
p1239
aS'%r163+12312'
p1240
aS'%fd95'
p1241
aa(lp1242
S'ld.global.f64'
p1243
aS'%fd99'
p1244
aS'%rd85'
p1245
aa(lp1246
S'ld.global.f64'
p1247
aS'%fd100'
p1248
aS'%rd85+1024'
p1249
aa(lp1250
S'ld.global.f64'
p1251
aS'%fd101'
p1252
aS'%rd85+2048'
p1253
aa(lp1254
S'ld.global.f64'
p1255
aS'%fd102'
p1256
aS'%rd85+3072'
p1257
aa(lp1258
S'st.shared.f64'
p1259
aS'%r164'
p1260
aS'%fd99'
p1261
aa(lp1262
S'st.shared.f64'
p1263
aS'%r164+1024'
p1264
aS'%fd100'
p1265
aa(lp1266
S'st.shared.f64'
p1267
aS'%r164+2048'
p1268
aS'%fd101'
p1269
aa(lp1270
S'st.shared.f64'
p1271
aS'%r164+3072'
p1272
aS'%fd102'
p1273
aa(lp1274
S'add.s32'
p1275
aS'%r164'
p1276
aS'%r164'
p1277
aS'4096'
p1278
aa(lp1279
S'add.s64'
p1280
aS'%rd85'
p1281
aS'%rd85'
p1282
aS'4096'
p1283
aa(lp1284
S'add.s64'
p1285
aS'%rd84'
p1286
aS'%rd84'
p1287
aS'16384'
p1288
aa(lp1289
S'add.s32'
p1290
aS'%r163'
p1291
aS'%r163'
p1292
aS'16384'
p1293
aa(lp1294
S'add.s32'
p1295
aS'%r165'
p1296
aS'%r165'
p1297
aS'512'
p1298
aa(lp1299
S'setp.lt.s32'
p1300
aS'%p16'
p1301
aS'%r165'
p1302
aS'100'
p1303
aa(lp1304
g23
aS'%p16'
p1305
aS'bra'
p1306
aS'BB0_24'
p1307
aa(lp1308
S'BB0_25:'
p1309
aa(lp1310
S'setp.lt.s32'
p1311
aS'%p1'
p1312
aS'%r166'
p1313
aS'100'
p1314
aa(lp1315
S'bar.sync'
p1316
ag91
aa(lp1317
g23
aS'!%p1'
p1318
aS'bra'
p1319
aS'BB0_35'
p1320
aa(lp1321
S'bra.uni'
p1322
aS'BB0_26'
p1323
aa(lp1324
S'BB0_26:'
p1325
aa(lp1326
S'cvt.s64.s32'
p1327
aS'%rd82'
p1328
aS'%rd3'
p1329
aa(lp1330
S'shl.b32'
p1331
aS'%r118'
p1332
aS'%r166'
p1333
ag129
aa(lp1334
S'mov.u32'
p1335
aS'%r119'
p1336
aS'_Z15kernel_gpu_cuda7par_str7dim_strP7box_strP11FOUR_VECTORPdS4_$__cuda_local_var_14048_39_non_const_rA_shared'
p1337
aa(lp1338
S'add.s32'
p1339
aS'%r120'
p1340
aS'%r119'
p1341
aS'%r118'
p1342
aa(lp1343
S'ld.shared.f64'
p1344
aS'%fd2'
p1345
aS'%r120'
p1346
aa(lp1347
S'ld.shared.f64'
p1348
aS'%fd3'
p1349
aS'%r120+8'
p1350
aa(lp1351
S'ld.shared.f64'
p1352
aS'%fd4'
p1353
aS'%r120+16'
p1354
aa(lp1355
S'ld.shared.f64'
p1356
aS'%fd5'
p1357
aS'%r120+24'
p1358
aa(lp1359
S'cvt.s64.s32'
p1360
aS'%rd75'
p1361
aS'%r166'
p1362
aa(lp1363
S'add.s64'
p1364
aS'%rd76'
p1365
aS'%rd75'
p1366
aS'%rd82'
p1367
aa(lp1368
S'shl.b64'
p1369
aS'%rd78'
p1370
aS'%rd76'
p1371
ag129
aa(lp1372
S'add.s64'
p1373
aS'%rd16'
p1374
aS'%rd77'
p1375
aS'%rd78'
p1376
aa(lp1377
S'ld.global.f64'
p1378
aS'%fd212'
p1379
aS'%rd16'
p1380
aa(lp1381
S'ld.global.f64'
p1382
aS'%fd211'
p1383
aS'%rd16+8'
p1384
aa(lp1385
S'ld.global.f64'
p1386
aS'%fd210'
p1387
aS'%rd16+16'
p1388
aa(lp1389
S'ld.global.f64'
p1390
aS'%fd209'
p1391
aS'%rd16+24'
p1392
aa(lp1393
S'mov.u32'
p1394
aS'%r167'
p1395
ag91
aa(lp1396
S'BB0_27:'
p1397
aa(lp1398
S'shl.b32'
p1399
aS'%r121'
p1400
aS'%r167'
p1401
ag129
aa(lp1402
S'mov.u32'
p1403
aS'%r122'
p1404
aS'_Z15kernel_gpu_cuda7par_str7dim_strP7box_strP11FOUR_VECTORPdS4_$__cuda_local_var_14057_39_non_const_rB_shared'
p1405
aa(lp1406
S'add.s32'
p1407
aS'%r40'
p1408
aS'%r122'
p1409
aS'%r121'
p1410
aa(lp1411
S'ld.shared.f64'
p1412
aS'%fd103'
p1413
aS'%r40'
p1414
aa(lp1415
S'ld.shared.f64'
p1416
aS'%fd14'
p1417
aS'%r40+8'
p1418
aa(lp1419
S'ld.shared.f64'
p1420
aS'%fd15'
p1421
aS'%r40+16'
p1422
aa(lp1423
S'ld.shared.f64'
p1424
aS'%fd16'
p1425
aS'%r40+24'
p1426
aa(lp1427
S'mov.b32'
p1428
aS'%f3'
p1429
aS'%r125'
p1430
aa(lp1431
S'setp.lt.f32'
p1432
aS'%p17'
p1433
aS'%f1'
p1434
aS'0f4086232B'
p1435
aa(lp1436
g23
aS'%p17'
p1437
aS'bra'
p1438
aS'BB0_30'
p1439
aa(lp1440
S'setp.geu.f32'
p1441
aS'%p19'
p1442
aS'%f1'
p1443
aS'0f40874800'
p1444
aa(lp1445
g23
aS'%p19'
p1446
aS'bra'
p1447
aS'BB0_30'
p1448
aa(lp1449
S'BB0_30:'
p1450
aa(lp1451
S'shl.b32'
p1452
aS'%r135'
p1453
aS'%r167'
p1454
ag86
aa(lp1455
S'mov.u32'
p1456
aS'%r136'
p1457
aS'_Z15kernel_gpu_cuda7par_str7dim_strP7box_strP11FOUR_VECTORPdS4_$__cuda_local_var_14058_34_non_const_qB_shared'
p1458
aa(lp1459
S'add.s32'
p1460
aS'%r44'
p1461
aS'%r136'
p1462
aS'%r135'
p1463
aa(lp1464
S'ld.shared.f64'
p1465
aS'%fd152'
p1466
aS'%r44'
p1467
aa(lp1468
S'ld.shared.f64'
p1469
aS'%fd153'
p1470
aS'%r40+32'
p1471
aa(lp1472
S'ld.shared.f64'
p1473
aS'%fd26'
p1474
aS'%r40+40'
p1475
aa(lp1476
S'ld.shared.f64'
p1477
aS'%fd27'
p1478
aS'%r40+48'
p1479
aa(lp1480
S'ld.shared.f64'
p1481
aS'%fd28'
p1482
aS'%r40+56'
p1483
aa(lp1484
S'mov.b32'
p1485
aS'%f4'
p1486
aS'%r139'
p1487
aa(lp1488
S'setp.lt.f32'
p1489
aS'%p20'
p1490
aS'%f2'
p1491
aS'0f4086232B'
p1492
aa(lp1493
g23
aS'%p20'
p1494
aS'bra'
p1495
aS'BB0_33'
p1496
aa(lp1497
S'setp.geu.f32'
p1498
aS'%p22'
p1499
aS'%f2'
p1500
aS'0f40874800'
p1501
aa(lp1502
g23
aS'%p22'
p1503
aS'bra'
p1504
aS'BB0_33'
p1505
aa(lp1506
S'BB0_33:'
p1507
aa(lp1508
S'ld.shared.f64'
p1509
aS'%fd202'
p1510
aS'%r44+8'
p1511
aa(lp1512
S'add.s32'
p1513
aS'%r167'
p1514
aS'%r167'
p1515
ag116
aa(lp1516
S'setp.ne.s32'
p1517
aS'%p23'
p1518
aS'%r167'
p1519
aS'100'
p1520
aa(lp1521
g23
aS'%p23'
p1522
aS'bra'
p1523
aS'BB0_27'
p1524
aa(lp1525
S'st.global.f64'
p1526
aS'%rd16'
p1527
aS'%fd212'
p1528
aa(lp1529
S'st.global.f64'
p1530
aS'%rd16+8'
p1531
aS'%fd211'
p1532
aa(lp1533
S'st.global.f64'
p1534
aS'%rd16+16'
p1535
aS'%fd210'
p1536
aa(lp1537
S'st.global.f64'
p1538
aS'%rd16+24'
p1539
aS'%fd209'
p1540
aa(lp1541
S'add.s32'
p1542
aS'%r166'
p1543
aS'%r166'
p1544
aS'128'
p1545
aa(lp1546
S'setp.lt.s32'
p1547
aS'%p24'
p1548
aS'%r166'
p1549
aS'100'
p1550
aa(lp1551
g23
aS'%p24'
p1552
aS'bra'
p1553
aS'BB0_26'
p1554
aa(lp1555
S'BB0_35:'
p1556
aa(lp1557
S'bar.sync'
p1558
ag91
aa(lp1559
S'add.s32'
p1560
aS'%r50'
p1561
aS'%r158'
p1562
ag81
aa(lp1563
S'mov.u32'
p1564
aS'%r149'
p1565
aS'%ctaid.x'
p1566
aa(lp1567
S'mul.wide.s32'
p1568
aS'%rd80'
p1569
aS'%r149'
p1570
aS'656'
p1571
aa(lp1572
S'add.s64'
p1573
aS'%rd81'
p1574
aS'%rd23'
p1575
aS'%rd80'
p1576
aa(lp1577
S'ld.global.u32'
p1578
aS'%r150'
p1579
aS'%rd81+24'
p1580
aa(lp1581
S'setp.lt.s32'
p1582
aS'%p25'
p1583
aS'%r158'
p1584
aS'%r150'
p1585
aa(lp1586
S'mov.u32'
p1587
aS'%r158'
p1588
aS'%r50'
p1589
aa(lp1590
g23
aS'%p25'
p1591
aS'bra'
p1592
aS'BB0_13'
p1593
aa(lp1594
S'BB0_36:'
p1595
aa.