(dp0
I1248
S'%r120+8'
p1
sI1312
S'%r40+8'
p2
sI1252
S'%r120+16'
p3
sI1256
S'%r120+24'
p4
sI1308
S'%r40'
p5
sI1356
S'%r44'
p6
sI1396
S'%r44+8'
p7
sI1360
S'%r40+32'
p8
sI1320
S'%r40+24'
p9
sI1364
S'%r40+40'
p10
sI1368
S'%r40+48'
p11
sI1316
S'%r40+16'
p12
sI1372
S'%r40+56'
p13
sI1244
S'%r120'
p14
s.