(dp0
I1108
S'%r163+4104'
p1
sI1088
S'%r163'
p2
sI1172
S'%r164+1024'
p3
sI1104
S'%r163+4096'
p4
sI860
S'%r99'
p5
sI1168
S'%r164'
p6
sI1120
S'%r163+8192'
p7
sI912
S'%r102+24'
p8
sI920
S'%r102+8'
p9
sI404
S'%r156'
p10
sI408
S'%r156+24'
p11
sI1092
S'%r163+24'
p12
sI284
S'%r62+24'
p13
sI1144
S'%r163+12304'
p14
sI160
S'%r56+16'
p15
sI816
S'%r96+24'
p16
sI164
S'%r56+8'
p17
sI424
S'%r156+4104'
p18
sI412
S'%r156+16'
p19
sI956
S'%r105'
p20
sI428
S'%r156+4112'
p21
sI1128
S'%r163+8208'
p22
sI432
S'%r156+4120'
p23
sI1096
S'%r163+16'
p24
sI436
S'%r156+8192'
p25
sI440
S'%r156+8200'
p26
sI820
S'%r96+16'
p27
sI444
S'%r156+8208'
p28
sI296
S'%r62'
p29
sI448
S'%r156+8216'
p30
sI288
S'%r62+16'
p31
sI452
S'%r156+12288'
p32
sI456
S'%r156+12296'
p33
sI1100
S'%r163+8'
p34
sI420
S'%r156+4096'
p35
sI460
S'%r156+12304'
p36
sI464
S'%r156+12312'
p37
sI824
S'%r96+8'
p38
sI156
S'%r56+24'
p39
sI416
S'%r156+8'
p40
sI724
S'%r90+16'
p41
sI728
S'%r90+8'
p42
sI292
S'%r62+8'
p43
sI220
S'%r59+24'
p44
sI224
S'%r59+16'
p45
sI720
S'%r90+24'
p46
sI228
S'%r59+8'
p47
sI1124
S'%r163+8200'
p48
sI232
S'%r59'
p49
sI828
S'%r96'
p50
sI924
S'%r102'
p51
sI1132
S'%r163+8216'
p52
sI1136
S'%r163+12288'
p53
sI1116
S'%r163+4120'
p54
sI168
S'%r56'
p55
sI1180
S'%r164+3072'
p56
sI1140
S'%r163+12296'
p57
sI732
S'%r90'
p58
sI1148
S'%r163+12312'
p59
sI1112
S'%r163+4112'
p60
sI916
S'%r102+16'
p61
sI1176
S'%r164+2048'
p62
sI764
S'%r93'
p63
s.