(lp0
S'_Z15kernel_gpu_cuda7par_str7dim_strP7box_strP11FOUR_VECTORPdS4_$__cuda_local_var_14048_39_non_const_rA_shared'
p1
aS'_Z15kernel_gpu_cuda7par_str7dim_strP7box_strP11FOUR_VECTORPdS4_$__cuda_local_var_14057_39_non_const_rB_shared'
p2
aS'_Z15kernel_gpu_cuda7par_str7dim_strP7box_strP11FOUR_VECTORPdS4_$__cuda_local_var_14058_34_non_const_qB_shared'
p3
aS'%fd38'
p4
aS'%rd21'
p5
aS'%rd17'
p6
aS'%rd18'
p7
aS'%rd19'
p8
aS'%rd20'
p9
a.