(lp0
S'%rd1'
p1
aS'%r1'
p2
aS'%r2'
p3
aS'%rd22'
p4
aS'%rd23'
p5
aS'%rd24'
p6
aS'%rd25'
p7
aS'%rd2'
p8
aS'%rd4'
p9
aS'%r51'
p10
aS'%r52'
p11
aS'%r53'
p12
aS'%r3'
p13
aS'%r4'
p14
aS'%r157'
p15
aS'%r154'
p16
aS'%r153'
p17
aS'%r54'
p18
aS'%r55'
p19
aS'%r56'
p20
aS'%rd26'
p21
aS'%rd27'
p22
aS'%rd28'
p23
aS'%rd29'
p24
aS'%r153'
p25
aS'%rd30'
p26
aS'%rd31'
p27
aS'%rd32'
p28
aS'%rd33'
p29
aS'%r57'
p30
aS'%r58'
p31
aS'%r59'
p32
aS'%r154'
p33
aS'%rd34'
p34
aS'%rd35'
p35
aS'%rd36'
p36
aS'%rd37'
p37
aS'%r60'
p38
aS'%r61'
p39
aS'%r62'
p40
aS'%r157'
p41
aS'%r63'
p42
aS'%r64'
p43
aS'%rd38'
p44
aS'%rd83'
p45
aS'%r65'
p46
aS'%r66'
p47
aS'%r156'
p48
aS'%rd83'
p49
aS'%r156'
p50
aS'%r157'
p51
aS'%r16'
p52
aS'%r158'
p53
aS'%rd77'
p54
aS'%r159'
p55
aS'%r69'
p56
aS'%r70'
p57
aS'%rd40'
p58
aS'%rd41'
p59
aS'%rd42'
p60
aS'%rd43'
p61
aS'%r166'
p62
aS'%rd45'
p63
aS'%rd46'
p64
aS'%rd9'
p65
aS'%r165'
p66
aS'%r72'
p67
aS'%r73'
p68
aS'%r74'
p69
aS'%r75'
p70
aS'%r76'
p71
aS'%r161'
p72
aS'%r78'
p73
aS'%r79'
p74
aS'%r80'
p75
aS'%r81'
p76
aS'%r160'
p77
aS'%r83'
p78
aS'%r84'
p79
aS'%r85'
p80
aS'%r86'
p81
aS'%r87'
p82
aS'%rd47'
p83
aS'%rd48'
p84
aS'%rd50'
p85
aS'%rd51'
p86
aS'%r88'
p87
aS'%r89'
p88
aS'%r90'
p89
aS'%rd52'
p90
aS'%rd53'
p91
aS'%rd54'
p92
aS'%r91'
p93
aS'%r92'
p94
aS'%r93'
p95
aS'%r160'
p96
aS'%rd55'
p97
aS'%rd56'
p98
aS'%rd58'
p99
aS'%rd59'
p100
aS'%r94'
p101
aS'%r95'
p102
aS'%r96'
p103
aS'%rd60'
p104
aS'%rd61'
p105
aS'%rd62'
p106
aS'%r97'
p107
aS'%r98'
p108
aS'%r99'
p109
aS'%r161'
p110
aS'%rd63'
p111
aS'%rd64'
p112
aS'%rd66'
p113
aS'%rd67'
p114
aS'%r100'
p115
aS'%r101'
p116
aS'%r102'
p117
aS'%rd68'
p118
aS'%rd69'
p119
aS'%rd70'
p120
aS'%r103'
p121
aS'%r104'
p122
aS'%r105'
p123
aS'%r165'
p124
aS'%r111'
p125
aS'%r112'
p126
aS'%r164'
p127
aS'%r113'
p128
aS'%r114'
p129
aS'%rd71'
p130
aS'%rd72'
p131
aS'%rd85'
p132
aS'%rd74'
p133
aS'%rd84'
p134
aS'%r115'
p135
aS'%r116'
p136
aS'%r163'
p137
aS'%r164'
p138
aS'%rd85'
p139
aS'%rd84'
p140
aS'%r163'
p141
aS'%r165'
p142
aS'%rd82'
p143
aS'%r118'
p144
aS'%r119'
p145
aS'%r120'
p146
aS'%rd75'
p147
aS'%rd76'
p148
aS'%rd78'
p149
aS'%rd16'
p150
aS'%r167'
p151
aS'%r121'
p152
aS'%r122'
p153
aS'%r40'
p154
aS'%f3'
p155
aS'%r135'
p156
aS'%r136'
p157
aS'%r44'
p158
aS'%f4'
p159
aS'%r167'
p160
aS'%r166'
p161
aS'%r50'
p162
aS'%r149'
p163
aS'%rd80'
p164
aS'%rd81'
p165
aS'%r158'
p166
a.